target datalayout = "e-m:e-p270:32:32-p271:32:32-p272:64:64-i64:64-i128:128-f80:128-n8:16:32:64-S128"
target triple = "x86_64-pc-linux-gnu"

%union.SourceSpan = type { i64 }
%struct.Decl_ = type { ptr, ptr, %union.SourceSpan, i64, %union.anon, i32, %union.anon.0, i64, ptr, ptr, ptr, %union.anon.1 }
%union.anon = type { ptr }
%union.anon.0 = type { i16 }
%union.anon.1 = type { %struct.FuncDecl }
%struct.FuncDecl = type { i32, [4 x i8], %struct.Signature_, i32, i32, %union.anon.8 }
%struct.Signature_ = type <{ %struct.CalleeAttributes, i16, i8, i32, i32, [4 x i8], ptr }>
%struct.CalleeAttributes = type { i8 }
%union.anon.8 = type { %struct.anon.9 }
%struct.anon.9 = type { i16, %union.anon.10 }
%union.anon.10 = type { ptr }
%struct.DefineDecl = type { i8, %union.anon.4 }
%union.anon.4 = type { %struct.anon.5 }
%struct.anon.5 = type { %union.anon.6, ptr }
%union.anon.6 = type { %struct.anon.7 }
%struct.anon.7 = type { ptr, ptr, %union.SourceSpan }

; Function Attrs: nounwind uwtable
define dso_local void @llvm_value_set_decl(ptr noundef %0, ptr noundef %1, ptr noundef %2) #0 {
  %4 = alloca ptr, align 8
  %5 = alloca ptr, align 8
  %6 = alloca ptr, align 8
  %7 = alloca ptr, align 8
  %8 = alloca ptr, align 8
  store ptr %0, ptr %6, align 8
  store ptr %1, ptr %7, align 8
  store ptr %2, ptr %8, align 8
  %9 = load ptr, ptr %8, align 8
  store ptr %9, ptr %5, align 8
  %10 = load ptr, ptr %5, align 8
  %11 = getelementptr inbounds %struct.Decl_, ptr %10, i32 0, i32 3
  %12 = load i64, ptr %11, align 8
  %13 = and i64 %12, 127
  %14 = trunc i64 %13 to i32
  %15 = icmp eq i32 %14, 9
  br i1 %15, label %16, label %21

16:                                               ; preds = %3
  %17 = load ptr, ptr %5, align 8
  %18 = getelementptr inbounds %struct.Decl_, ptr %17, i32 0, i32 11
  %19 = getelementptr inbounds %struct.DefineDecl, ptr %18, i32 0, i32 1
  %20 = load ptr, ptr %19, align 8
  store ptr %20, ptr %4, align 8
  br label %23

21:                                               ; preds = %3
  %22 = load ptr, ptr %5, align 8
  store ptr %22, ptr %4, align 8
  br label %23

23:                                               ; preds = %21, %16
  %24 = load ptr, ptr %4, align 8
  store ptr %24, ptr %8, align 8
  %25 = load ptr, ptr %8, align 8
  %26 = getelementptr inbounds %struct.Decl_, ptr %25, i32 0, i32 3
  %27 = load i64, ptr %26, align 8
  %28 = lshr i64 %27, 17
  %29 = and i64 %28, 1
  %30 = trunc i64 %29 to i1
  br i1 %30, label %31, label %39

31:                                               ; preds = %23
  %32 = load ptr, ptr %7, align 8
  %33 = load ptr, ptr %8, align 8
  %34 = getelementptr inbounds %struct.Decl_, ptr %33, i32 0, i32 4
  %35 = load ptr, ptr %34, align 8
  %36 = load ptr, ptr %8, align 8
  %37 = getelementptr inbounds %struct.Decl_, ptr %36, i32 0, i32 10
  %38 = load ptr, ptr %37, align 8
  call void @llvm_value_set(ptr noundef %32, ptr noundef %35, ptr noundef %38)
  br label %43

39:                                               ; preds = %23
  %40 = load ptr, ptr %6, align 8
  %41 = load ptr, ptr %7, align 8
  %42 = load ptr, ptr %8, align 8
  call void @llvm_value_set_decl_address(ptr noundef %40, ptr noundef %41, ptr noundef %42)
  br label %43

43:                                               ; preds = %39, %31
  ret void
}