; Function Attrs: nounwind uwtable
define dso_local void @llvm_value_set_decl(ptr noundef %0, ptr noundef %1, ptr noundef %2) local_unnamed_addr #0 {
  %4 = getelementptr inbounds i8, ptr %2, i64 24
  %5 = load i64, ptr %4, align 8
  %6 = and i64 %5, 127
  %7 = icmp eq i64 %6, 9
  br i1 %7, label %8, label %11

8:                                                ; preds = %3
  %9 = getelementptr inbounds i8, ptr %2, i64 88
  %10 = load ptr, ptr %9, align 8
  %.phi.trans.insert = getelementptr inbounds i8, ptr %10, i64 24
  %.pre = load i64, ptr %.phi.trans.insert, align 8
  br label %11

11:                                               ; preds = %3, %8
  %12 = phi i64 [ %.pre, %8 ], [ %5, %3 ]
  %.0 = phi ptr [ %10, %8 ], [ %2, %3 ]
  %13 = and i64 %12, 131072
  %.not = icmp eq i64 %13, 0
  br i1 %.not, label %19, label %14

14:                                               ; preds = %11
  %15 = getelementptr inbounds i8, ptr %.0, i64 32
  %16 = load ptr, ptr %15, align 8
  %17 = getelementptr inbounds i8, ptr %.0, i64 72
  %18 = load ptr, ptr %17, align 8
  tail call void @llvm_value_set(ptr noundef %1, ptr noundef %16, ptr noundef %18) #10
  br label %20

19:                                               ; preds = %11
  tail call void @llvm_value_set_decl_address(ptr noundef %0, ptr noundef %1, ptr noundef nonnull %.0) #10
  br label %20

20:                                               ; preds = %19, %14
  ret void
}